target datalayout = "e-m:e-p270:32:32-p271:32:32-p272:64:64-i64:64-i128:128-f80:128-n8:16:32:64-S128"
target triple = "x86_64-pc-linux-gnu"

; Function Attrs: nounwind uwtable
define internal void @v_predictor(ptr noundef %0, i64 noundef %1, i32 noundef %2, i32 noundef %3, ptr noundef %4, ptr noundef %5) #0 {
  %7 = alloca ptr, align 8
  %8 = alloca i64, align 8
  %9 = alloca i32, align 4
  %10 = alloca i32, align 4
  %11 = alloca ptr, align 8
  %12 = alloca ptr, align 8
  %13 = alloca i32, align 4
  store ptr %0, ptr %7, align 8
  store i64 %1, ptr %8, align 8
  store i32 %2, ptr %9, align 4
  store i32 %3, ptr %10, align 4
  store ptr %4, ptr %11, align 8
  store ptr %5, ptr %12, align 8
  store i32 0, ptr %13, align 4
  br label %14

14:                                               ; preds = %26, %6
  %15 = load i32, ptr %13, align 4
  %16 = load i32, ptr %10, align 4
  %17 = icmp slt i32 %15, %16
  br i1 %17, label %18, label %29

18:                                               ; preds = %14
  %19 = load ptr, ptr %7, align 8
  %20 = load ptr, ptr %11, align 8
  %21 = load i32, ptr %9, align 4
  %22 = sext i32 %21 to i64
  call void @llvm.memcpy.p0.p0.i64(ptr align 1 %19, ptr align 1 %20, i64 %22, i1 false)
  %23 = load i64, ptr %8, align 8
  %24 = load ptr, ptr %7, align 8
  %25 = getelementptr inbounds i8, ptr %24, i64 %23
  store ptr %25, ptr %7, align 8
  br label %26

26:                                               ; preds = %18
  %27 = load i32, ptr %13, align 4
  %28 = add nsw i32 %27, 1
  store i32 %28, ptr %13, align 4
  br label %14, !llvm.loop !11

29:                                               ; preds = %14
  ret void
}

; Function Attrs: nounwind uwtable
define hidden void @aom_v_predictor_8x4_c(ptr noundef %0, i64 noundef %1, ptr noundef %2, ptr noundef %3) #0 {
  %5 = alloca ptr, align 8
  %6 = alloca i64, align 8
  %7 = alloca ptr, align 8
  %8 = alloca ptr, align 8
  store ptr %0, ptr %5, align 8
  store i64 %1, ptr %6, align 8
  store ptr %2, ptr %7, align 8
  store ptr %3, ptr %8, align 8
  %9 = load ptr, ptr %5, align 8
  %10 = load i64, ptr %6, align 8
  %11 = load ptr, ptr %7, align 8
  %12 = load ptr, ptr %8, align 8
  call void @v_predictor(ptr noundef %9, i64 noundef %10, i32 noundef 8, i32 noundef 4, ptr noundef %11, ptr noundef %12)
  ret void
}