; Function Attrs: nofree norecurse nosync nounwind memory(argmem: readwrite) uwtable
define hidden void @aom_v_predictor_8x4_c(ptr nocapture noundef writeonly %0, i64 noundef %1, ptr nocapture noundef readonly %2, ptr nocapture noundef readnone %3) local_unnamed_addr #0 {
  br label %5

5:                                                ; preds = %5, %4
  %.02.i = phi i32 [ 0, %4 ], [ %8, %5 ]
  %.071.i = phi ptr [ %0, %4 ], [ %7, %5 ]
  %6 = load i64, ptr %2, align 1
  store i64 %6, ptr %.071.i, align 1
  %7 = getelementptr inbounds i8, ptr %.071.i, i64 %1
  %8 = add nuw nsw i32 %.02.i, 1
  %exitcond.not.i = icmp eq i32 %8, 4
  br i1 %exitcond.not.i, label %v_predictor.exit, label %5, !llvm.loop !11

v_predictor.exit:                                 ; preds = %5
  ret void
}